
func.o:     file format elf32-littleriscv


Disassembly of section .text:

00000000 <add>:
   0:	1101                	addi	sp,sp,-32
   2:	ce22                	sw	s0,28(sp)
   4:	1000                	addi	s0,sp,32
   6:	fea42623          	sw	a0,-20(s0)
   a:	feb42423          	sw	a1,-24(s0)
   e:	fec42703          	lw	a4,-20(s0)
  12:	fe842783          	lw	a5,-24(s0)
  16:	97ba                	add	a5,a5,a4
  18:	853e                	mv	a0,a5
  1a:	4472                	lw	s0,28(sp)
  1c:	6105                	addi	sp,sp,32
  1e:	8082                	ret

00000020 <fib>:
  20:	1101                	addi	sp,sp,-32
  22:	ce06                	sw	ra,28(sp)
  24:	cc22                	sw	s0,24(sp)
  26:	ca26                	sw	s1,20(sp)
  28:	1000                	addi	s0,sp,32
  2a:	fea42623          	sw	a0,-20(s0)
  2e:	fec42703          	lw	a4,-20(s0)
  32:	4785                	li	a5,1
  34:	00e7c463          	blt	a5,a4,3c <.L4>
  38:	4785                	li	a5,1
  3a:	a025                	j	62 <.L5>

0000003c <.L4>:
  3c:	fec42783          	lw	a5,-20(s0)
  40:	17fd                	addi	a5,a5,-1
  42:	853e                	mv	a0,a5
  44:	00000097          	auipc	ra,0x0
  48:	000080e7          	jalr	ra # 44 <.L4+0x8>
  4c:	84aa                	mv	s1,a0
  4e:	fec42783          	lw	a5,-20(s0)
  52:	17f9                	addi	a5,a5,-2
  54:	853e                	mv	a0,a5
  56:	00000097          	auipc	ra,0x0
  5a:	000080e7          	jalr	ra # 56 <.L4+0x1a>
  5e:	87aa                	mv	a5,a0
  60:	97a6                	add	a5,a5,s1

00000062 <.L5>:
  62:	853e                	mv	a0,a5
  64:	40f2                	lw	ra,28(sp)
  66:	4462                	lw	s0,24(sp)
  68:	44d2                	lw	s1,20(sp)
  6a:	6105                	addi	sp,sp,32
  6c:	8082                	ret

0000006e <hello>:
  6e:	1141                	addi	sp,sp,-16
  70:	c606                	sw	ra,12(sp)
  72:	c422                	sw	s0,8(sp)
  74:	0800                	addi	s0,sp,16
  76:	000007b7          	lui	a5,0x0
  7a:	00078513          	mv	a0,a5
  7e:	00000097          	auipc	ra,0x0
  82:	000080e7          	jalr	ra # 7e <hello+0x10>
  86:	4781                	li	a5,0
  88:	853e                	mv	a0,a5
  8a:	40b2                	lw	ra,12(sp)
  8c:	4422                	lw	s0,8(sp)
  8e:	0141                	addi	sp,sp,16
  90:	8082                	ret

00000092 <test_datarel>:
  92:	1101                	addi	sp,sp,-32
  94:	ce06                	sw	ra,28(sp)
  96:	cc22                	sw	s0,24(sp)
  98:	1000                	addi	s0,sp,32
  9a:	000007b7          	lui	a5,0x0
  9e:	0007a783          	lw	a5,0(a5) # 0 <add>
  a2:	fef42623          	sw	a5,-20(s0)
  a6:	fec42783          	lw	a5,-20(s0)
  aa:	863e                	mv	a2,a5
  ac:	87fd                	srai	a5,a5,0x1f
  ae:	86be                	mv	a3,a5
  b0:	000007b7          	lui	a5,0x0
  b4:	00078513          	mv	a0,a5
  b8:	00000097          	auipc	ra,0x0
  bc:	000080e7          	jalr	ra # b8 <test_datarel+0x26>
  c0:	fec42703          	lw	a4,-20(s0)
  c4:	000007b7          	lui	a5,0x0
  c8:	00078513          	mv	a0,a5
  cc:	9702                	jalr	a4
  ce:	4781                	li	a5,0
  d0:	853e                	mv	a0,a5
  d2:	40f2                	lw	ra,28(sp)
  d4:	4462                	lw	s0,24(sp)
  d6:	6105                	addi	sp,sp,32
  d8:	8082                	ret
